target datalayout = "e-m:e-p270:32:32-p271:32:32-p272:64:64-i64:64-i128:128-f80:128-n8:16:32:64-S128"
target triple = "x86_64-pc-linux-gnu"

%struct.stbi__write_context = type { ptr, ptr, [64 x i8], i32 }

; Function Attrs: nounwind uwtable
define void @stbiw__write_dump_data(ptr noundef %0, i32 noundef %1, ptr noundef %2) #0 {
  %4 = alloca ptr, align 8
  %5 = alloca i32, align 4
  %6 = alloca ptr, align 8
  %7 = alloca i8, align 1
  store ptr %0, ptr %4, align 8, !tbaa !7
  store i32 %1, ptr %5, align 4, !tbaa !3
  store ptr %2, ptr %6, align 8, !tbaa !12
  call void @llvm.lifetime.start.p0(i64 1, ptr %7) #11
  %8 = load i32, ptr %5, align 4, !tbaa !3
  %9 = and i32 %8, 255
  %10 = trunc i32 %9 to i8
  store i8 %10, ptr %7, align 1, !tbaa !18
  %11 = load ptr, ptr %4, align 8, !tbaa !7
  %12 = getelementptr inbounds nuw %struct.stbi__write_context, ptr %11, i32 0, i32 0
  %13 = load ptr, ptr %12, align 8, !tbaa !9
  %14 = load ptr, ptr %4, align 8, !tbaa !7
  %15 = getelementptr inbounds nuw %struct.stbi__write_context, ptr %14, i32 0, i32 1
  %16 = load ptr, ptr %15, align 8, !tbaa !11
  call void %13(ptr noundef %16, ptr noundef %7, i32 noundef 1)
  %17 = load ptr, ptr %4, align 8, !tbaa !7
  %18 = getelementptr inbounds nuw %struct.stbi__write_context, ptr %17, i32 0, i32 0
  %19 = load ptr, ptr %18, align 8, !tbaa !9
  %20 = load ptr, ptr %4, align 8, !tbaa !7
  %21 = getelementptr inbounds nuw %struct.stbi__write_context, ptr %20, i32 0, i32 1
  %22 = load ptr, ptr %21, align 8, !tbaa !11
  %23 = load ptr, ptr %6, align 8, !tbaa !12
  %24 = load i32, ptr %5, align 4, !tbaa !3
  call void %19(ptr noundef %22, ptr noundef %23, i32 noundef %24)
  call void @llvm.lifetime.end.p0(i64 1, ptr %7) #11
  ret void
}