; Function Attrs: nounwind uwtable
define void @stbiw__write_dump_data(ptr noundef readonly captures(none) %0, i32 noundef %1, ptr noundef %2) local_unnamed_addr #5 {
  %4 = alloca i8, align 1
  call void @llvm.lifetime.start.p0(i64 1, ptr nonnull %4) #26
  %5 = trunc i32 %1 to i8
  store i8 %5, ptr %4, align 1, !tbaa !11
  %6 = load ptr, ptr %0, align 8, !tbaa !7
  %7 = getelementptr inbounds nuw i8, ptr %0, i64 8
  %8 = load ptr, ptr %7, align 8, !tbaa !10
  call void %6(ptr noundef %8, ptr noundef nonnull %4, i32 noundef 1) #26
  %9 = load ptr, ptr %0, align 8, !tbaa !7
  %10 = load ptr, ptr %7, align 8, !tbaa !10
  call void %9(ptr noundef %10, ptr noundef %2, i32 noundef %1) #26
  call void @llvm.lifetime.end.p0(i64 1, ptr nonnull %4) #26
  ret void
}